; ModuleID = '41/306.cpp'
source_filename = "41/306.cpp"
target datalayout = "e-m:e-p270:32:32-p271:32:32-p272:64:64-i64:64-f80:128-n8:16:32:64-S128"
target triple = "x86_64-pc-linux-gnu"

%"class.std::ios_base::Init" = type { i8 }
%"class.std::basic_ostream" = type { i32 (...)**, %"class.std::basic_ios" }
%"class.std::basic_ios" = type { %"class.std::ios_base", %"class.std::basic_ostream"*, i8, i8, %"class.std::basic_streambuf"*, %"class.std::ctype"*, %"class.std::num_put"*, %"class.std::num_get"* }
%"class.std::ios_base" = type { i32 (...)**, i64, i64, i32, i32, i32, %"struct.std::ios_base::_Callback_list"*, %"struct.std::ios_base::_Words", [8 x %"struct.std::ios_base::_Words"], i32, %"struct.std::ios_base::_Words"*, %"class.std::locale" }
%"struct.std::ios_base::_Callback_list" = type { %"struct.std::ios_base::_Callback_list"*, void (i32, %"class.std::ios_base"*, i32)*, i32, i32 }
%"struct.std::ios_base::_Words" = type { i8*, i64 }
%"class.std::locale" = type { %"class.std::locale::_Impl"* }
%"class.std::locale::_Impl" = type { i32, %"class.std::locale::facet"**, i64, %"class.std::locale::facet"**, i8** }
%"class.std::locale::facet" = type <{ i32 (...)**, i32, [4 x i8] }>
%"class.std::basic_streambuf" = type { i32 (...)**, i8*, i8*, i8*, i8*, i8*, i8*, %"class.std::locale" }
%"class.std::ctype" = type <{ %"class.std::locale::facet.base", [4 x i8], %struct.__locale_struct*, i8, [7 x i8], i32*, i32*, i16*, i8, [256 x i8], [256 x i8], i8, [6 x i8] }>
%"class.std::locale::facet.base" = type <{ i32 (...)**, i32 }>
%struct.__locale_struct = type { [13 x %struct.__locale_data*], i16*, i32*, i32*, [13 x i8*] }
%struct.__locale_data = type opaque
%"class.std::num_put" = type { %"class.std::locale::facet.base", [4 x i8] }
%"class.std::num_get" = type { %"class.std::locale::facet.base", [4 x i8] }

@_ZStL8__ioinit = internal global %"class.std::ios_base::Init" zeroinitializer, align 1
@__dso_handle = external hidden global i8
@_ZSt4cout = external dso_local global %"class.std::basic_ostream", align 8
@llvm.global_ctors = appending global [1 x { i32, void ()*, i8* }] [{ i32, void ()*, i8* } { i32 65535, void ()* @_GLOBAL__sub_I_306.cpp, i8* null }]

; Function Attrs: noinline uwtable
define internal void @__cxx_global_var_init() #0 section ".text.startup" {
  call void @_ZNSt8ios_base4InitC1Ev(%"class.std::ios_base::Init"* @_ZStL8__ioinit)
  %1 = call i32 @__cxa_atexit(void (i8*)* bitcast (void (%"class.std::ios_base::Init"*)* @_ZNSt8ios_base4InitD1Ev to void (i8*)*), i8* getelementptr inbounds (%"class.std::ios_base::Init", %"class.std::ios_base::Init"* @_ZStL8__ioinit, i32 0, i32 0), i8* @__dso_handle) #3
  ret void
}

declare dso_local void @_ZNSt8ios_base4InitC1Ev(%"class.std::ios_base::Init"*) unnamed_addr #1

; Function Attrs: nounwind
declare dso_local void @_ZNSt8ios_base4InitD1Ev(%"class.std::ios_base::Init"*) unnamed_addr #2

; Function Attrs: nounwind
declare dso_local i32 @__cxa_atexit(void (i8*)*, i8*, i8*) #3

; Function Attrs: noinline norecurse uwtable
define dso_local i32 @main() #4 {
  %1 = alloca i32, align 4
  %2 = alloca i32, align 4
  %3 = alloca i32, align 4
  %4 = alloca i32, align 4
  %5 = alloca i32, align 4
  %6 = alloca i32, align 4
  store i32 0, i32* %1, align 4
  store i32 1, i32* %2, align 4
  br label %7

7:                                                ; preds = %146, %0
  %8 = load i32, i32* %2, align 4
  %9 = icmp slt i32 %8, 6
  br i1 %9, label %10, label %149

10:                                               ; preds = %7
  store i32 1, i32* %3, align 4
  br label %11

11:                                               ; preds = %142, %10
  %12 = load i32, i32* %3, align 4
  %13 = icmp slt i32 %12, 6
  br i1 %13, label %14, label %145

14:                                               ; preds = %11
  store i32 1, i32* %4, align 4
  br label %15

15:                                               ; preds = %138, %14
  %16 = load i32, i32* %4, align 4
  %17 = icmp slt i32 %16, 6
  br i1 %17, label %18, label %141

18:                                               ; preds = %15
  store i32 1, i32* %5, align 4
  br label %19

19:                                               ; preds = %134, %18
  %20 = load i32, i32* %5, align 4
  %21 = icmp slt i32 %20, 6
  br i1 %21, label %22, label %137

22:                                               ; preds = %19
  store i32 1, i32* %6, align 4
  br label %23

23:                                               ; preds = %130, %22
  %24 = load i32, i32* %6, align 4
  %25 = icmp slt i32 %24, 6
  br i1 %25, label %26, label %133

26:                                               ; preds = %23
  %27 = load i32, i32* %6, align 4
  %28 = icmp eq i32 %27, 1
  %29 = zext i1 %28 to i32
  %30 = load i32, i32* %3, align 4
  %31 = icmp eq i32 %30, 2
  %32 = zext i1 %31 to i32
  %33 = add nsw i32 %29, %32
  %34 = load i32, i32* %2, align 4
  %35 = icmp eq i32 %34, 5
  %36 = zext i1 %35 to i32
  %37 = add nsw i32 %33, %36
  %38 = load i32, i32* %4, align 4
  %39 = icmp ne i32 %38, 1
  %40 = zext i1 %39 to i32
  %41 = add nsw i32 %37, %40
  %42 = load i32, i32* %5, align 4
  %43 = icmp eq i32 %42, 1
  %44 = zext i1 %43 to i32
  %45 = add nsw i32 %41, %44
  %46 = icmp eq i32 %45, 2
  br i1 %46, label %47, label %129

47:                                               ; preds = %26
  %48 = load i32, i32* %2, align 4
  %49 = load i32, i32* %3, align 4
  %50 = icmp eq i32 %48, %49
  %51 = zext i1 %50 to i32
  %52 = load i32, i32* %2, align 4
  %53 = load i32, i32* %4, align 4
  %54 = icmp eq i32 %52, %53
  %55 = zext i1 %54 to i32
  %56 = add nsw i32 %51, %55
  %57 = load i32, i32* %2, align 4
  %58 = load i32, i32* %5, align 4
  %59 = icmp eq i32 %57, %58
  %60 = zext i1 %59 to i32
  %61 = add nsw i32 %56, %60
  %62 = load i32, i32* %2, align 4
  %63 = load i32, i32* %6, align 4
  %64 = icmp eq i32 %62, %63
  %65 = zext i1 %64 to i32
  %66 = add nsw i32 %61, %65
  %67 = load i32, i32* %3, align 4
  %68 = load i32, i32* %4, align 4
  %69 = icmp eq i32 %67, %68
  %70 = zext i1 %69 to i32
  %71 = add nsw i32 %66, %70
  %72 = load i32, i32* %3, align 4
  %73 = load i32, i32* %5, align 4
  %74 = icmp eq i32 %72, %73
  %75 = zext i1 %74 to i32
  %76 = add nsw i32 %71, %75
  %77 = load i32, i32* %3, align 4
  %78 = load i32, i32* %6, align 4
  %79 = icmp eq i32 %77, %78
  %80 = zext i1 %79 to i32
  %81 = add nsw i32 %76, %80
  %82 = load i32, i32* %4, align 4
  %83 = load i32, i32* %5, align 4
  %84 = icmp eq i32 %82, %83
  %85 = zext i1 %84 to i32
  %86 = add nsw i32 %81, %85
  %87 = load i32, i32* %4, align 4
  %88 = load i32, i32* %6, align 4
  %89 = icmp eq i32 %87, %88
  %90 = zext i1 %89 to i32
  %91 = add nsw i32 %86, %90
  %92 = load i32, i32* %5, align 4
  %93 = load i32, i32* %6, align 4
  %94 = icmp eq i32 %92, %93
  %95 = zext i1 %94 to i32
  %96 = add nsw i32 %91, %95
  %97 = icmp eq i32 %96, 0
  br i1 %97, label %98, label %129

98:                                               ; preds = %47
  %99 = load i32, i32* %6, align 4
  %100 = icmp ne i32 %99, 2
  %101 = zext i1 %100 to i32
  %102 = load i32, i32* %6, align 4
  %103 = icmp ne i32 %102, 3
  %104 = zext i1 %103 to i32
  %105 = add nsw i32 %101, %104
  %106 = icmp eq i32 %105, 2
  br i1 %106, label %107, label %129

107:                                              ; preds = %98
  %108 = load i32, i32* %2, align 4
  %109 = icmp eq i32 %108, 5
  br i1 %109, label %110, label %129

110:                                              ; preds = %107
  %111 = load i32, i32* %3, align 4
  %112 = icmp ne i32 %111, 1
  br i1 %112, label %113, label %129

113:                                              ; preds = %110
  %114 = load i32, i32* %2, align 4
  %115 = call dereferenceable(272) %"class.std::basic_ostream"* @_ZNSolsEi(%"class.std::basic_ostream"* @_ZSt4cout, i32 %114)
  %116 = call dereferenceable(272) %"class.std::basic_ostream"* @_ZStlsISt11char_traitsIcEERSt13basic_ostreamIcT_ES5_c(%"class.std::basic_ostream"* dereferenceable(272) %115, i8 signext 32)
  %117 = load i32, i32* %3, align 4
  %118 = call dereferenceable(272) %"class.std::basic_ostream"* @_ZNSolsEi(%"class.std::basic_ostream"* %116, i32 %117)
  %119 = call dereferenceable(272) %"class.std::basic_ostream"* @_ZStlsISt11char_traitsIcEERSt13basic_ostreamIcT_ES5_c(%"class.std::basic_ostream"* dereferenceable(272) %118, i8 signext 32)
  %120 = load i32, i32* %4, align 4
  %121 = call dereferenceable(272) %"class.std::basic_ostream"* @_ZNSolsEi(%"class.std::basic_ostream"* %119, i32 %120)
  %122 = call dereferenceable(272) %"class.std::basic_ostream"* @_ZStlsISt11char_traitsIcEERSt13basic_ostreamIcT_ES5_c(%"class.std::basic_ostream"* dereferenceable(272) %121, i8 signext 32)
  %123 = load i32, i32* %5, align 4
  %124 = call dereferenceable(272) %"class.std::basic_ostream"* @_ZNSolsEi(%"class.std::basic_ostream"* %122, i32 %123)
  %125 = call dereferenceable(272) %"class.std::basic_ostream"* @_ZStlsISt11char_traitsIcEERSt13basic_ostreamIcT_ES5_c(%"class.std::basic_ostream"* dereferenceable(272) %124, i8 signext 32)
  %126 = load i32, i32* %6, align 4
  %127 = call dereferenceable(272) %"class.std::basic_ostream"* @_ZNSolsEi(%"class.std::basic_ostream"* %125, i32 %126)
  %128 = call dereferenceable(272) %"class.std::basic_ostream"* @_ZNSolsEPFRSoS_E(%"class.std::basic_ostream"* %127, %"class.std::basic_ostream"* (%"class.std::basic_ostream"*)* @_ZSt4endlIcSt11char_traitsIcEERSt13basic_ostreamIT_T0_ES6_)
  br label %129

129:                                              ; preds = %113, %110, %107, %98, %47, %26
  br label %130

130:                                              ; preds = %129
  %131 = load i32, i32* %6, align 4
  %132 = add nsw i32 %131, 1
  store i32 %132, i32* %6, align 4
  br label %23

133:                                              ; preds = %23
  br label %134

134:                                              ; preds = %133
  %135 = load i32, i32* %5, align 4
  %136 = add nsw i32 %135, 1
  store i32 %136, i32* %5, align 4
  br label %19

137:                                              ; preds = %19
  br label %138

138:                                              ; preds = %137
  %139 = load i32, i32* %4, align 4
  %140 = add nsw i32 %139, 1
  store i32 %140, i32* %4, align 4
  br label %15

141:                                              ; preds = %15
  br label %142

142:                                              ; preds = %141
  %143 = load i32, i32* %3, align 4
  %144 = add nsw i32 %143, 1
  store i32 %144, i32* %3, align 4
  br label %11

145:                                              ; preds = %11
  br label %146

146:                                              ; preds = %145
  %147 = load i32, i32* %2, align 4
  %148 = add nsw i32 %147, 1
  store i32 %148, i32* %2, align 4
  br label %7

149:                                              ; preds = %7
  ret i32 0
}

declare dso_local dereferenceable(272) %"class.std::basic_ostream"* @_ZStlsISt11char_traitsIcEERSt13basic_ostreamIcT_ES5_c(%"class.std::basic_ostream"* dereferenceable(272), i8 signext) #1

declare dso_local dereferenceable(272) %"class.std::basic_ostream"* @_ZNSolsEi(%"class.std::basic_ostream"*, i32) #1

declare dso_local dereferenceable(272) %"class.std::basic_ostream"* @_ZNSolsEPFRSoS_E(%"class.std::basic_ostream"*, %"class.std::basic_ostream"* (%"class.std::basic_ostream"*)*) #1

declare dso_local dereferenceable(272) %"class.std::basic_ostream"* @_ZSt4endlIcSt11char_traitsIcEERSt13basic_ostreamIT_T0_ES6_(%"class.std::basic_ostream"* dereferenceable(272)) #1

; Function Attrs: noinline uwtable
define internal void @_GLOBAL__sub_I_306.cpp() #0 section ".text.startup" {
  call void @__cxx_global_var_init()
  ret void
}


!llvm.module.flags = !{!0}
!llvm.ident = !{!1}

!0 = !{i32 1, !"wchar_size", i32 4}
!1 = !{!"clang version 10.0.0-4ubuntu1 "}
